target datalayout = "e-m:e-p270:32:32-p271:32:32-p272:64:64-i64:64-i128:128-f80:128-n8:16:32:64-S128"
target triple = "x86_64-pc-linux-gnu"

@.str.2 = private unnamed_addr constant [5 x i8] c"__fd\00", align 1

; Function Attrs: inlinehint mustprogress nounwind willreturn memory(read) uwtable
define available_externally i32 @atoi(ptr noundef nonnull %0) #12 {
  %2 = alloca ptr, align 8
  store ptr %0, ptr %2, align 8, !tbaa !19
  %3 = load ptr, ptr %2, align 8, !tbaa !19
  %4 = call i64 @strtol(ptr noundef %3, ptr noundef null, i32 noundef 10) #20
  %5 = trunc i64 %4 to i32
  ret i32 %5
}

; Function Attrs: mustprogress uwtable
define i32 @zmq_msg_get(ptr noundef %0, i32 noundef %1) #1 {
  %3 = alloca i32, align 4
  %4 = alloca ptr, align 8
  %5 = alloca i32, align 4
  %6 = alloca ptr, align 8
  %7 = alloca i32, align 4
  store ptr %0, ptr %4, align 8, !tbaa !23
  store i32 %1, ptr %5, align 4, !tbaa !8
  call void @llvm.lifetime.start.p0(i64 8, ptr %6) #20
  %8 = load i32, ptr %5, align 4, !tbaa !8
  switch i32 %8, label %37 [
    i32 1, label %9
    i32 2, label %16
    i32 3, label %25
  ]

9:                                                ; preds = %2
  %10 = load ptr, ptr %4, align 8, !tbaa !23
  %11 = call noundef zeroext i8 @_ZNK3zmq5msg_t5flagsEv(ptr noundef nonnull align 8 dereferenceable(64) %10)
  %12 = zext i8 %11 to i32
  %13 = and i32 %12, 1
  %14 = icmp ne i32 %13, 0
  %15 = select i1 %14, i32 1, i32 0
  store i32 %15, ptr %3, align 4
  store i32 1, ptr %7, align 4
  br label %39

16:                                               ; preds = %2
  %17 = load ptr, ptr %4, align 8, !tbaa !23
  %18 = call ptr @zmq_msg_gets(ptr noundef %17, ptr noundef @.str.2)
  store ptr %18, ptr %6, align 8, !tbaa !19
  %19 = load ptr, ptr %6, align 8, !tbaa !19
  %20 = icmp eq ptr %19, null
  br i1 %20, label %21, label %22

21:                                               ; preds = %16
  store i32 -1, ptr %3, align 4
  store i32 1, ptr %7, align 4
  br label %39

22:                                               ; preds = %16
  %23 = load ptr, ptr %6, align 8, !tbaa !19
  %24 = call i32 @atoi(ptr noundef %23) #24
  store i32 %24, ptr %3, align 4
  store i32 1, ptr %7, align 4
  br label %39

25:                                               ; preds = %2
  %26 = load ptr, ptr %4, align 8, !tbaa !23
  %27 = call noundef zeroext i1 @_ZNK3zmq5msg_t7is_cmsgEv(ptr noundef nonnull align 8 dereferenceable(64) %26)
  br i1 %27, label %34, label %28

28:                                               ; preds = %25
  %29 = load ptr, ptr %4, align 8, !tbaa !23
  %30 = call noundef zeroext i8 @_ZNK3zmq5msg_t5flagsEv(ptr noundef nonnull align 8 dereferenceable(64) %29)
  %31 = zext i8 %30 to i32
  %32 = and i32 %31, 128
  %33 = icmp ne i32 %32, 0
  br label %34

34:                                               ; preds = %28, %25
  %35 = phi i1 [ true, %25 ], [ %33, %28 ]
  %36 = select i1 %35, i32 1, i32 0
  store i32 %36, ptr %3, align 4
  store i32 1, ptr %7, align 4
  br label %39

37:                                               ; preds = %2
  %38 = call ptr @__errno_location() #19
  store i32 22, ptr %38, align 4, !tbaa !8
  store i32 -1, ptr %3, align 4
  store i32 1, ptr %7, align 4
  br label %39

39:                                               ; preds = %37, %34, %22, %21, %9
  call void @llvm.lifetime.end.p0(i64 8, ptr %6) #20
  %40 = load i32, ptr %3, align 4
  ret i32 %40
}