; Function Attrs: mustprogress uwtable
define i32 @zmq_msg_get(ptr noundef %0, i32 noundef %1) local_unnamed_addr #1 {
  switch i32 %1, label %18 [
    i32 1, label %3
    i32 2, label %7
    i32 3, label %13
  ]

3:                                                ; preds = %2
  %4 = tail call noundef zeroext i8 @_ZNK3zmq5msg_t5flagsEv(ptr noundef nonnull align 8 dereferenceable(64) %0)
  %5 = and i8 %4, 1
  %6 = zext nneg i8 %5 to i32
  br label %20

7:                                                ; preds = %2
  %8 = tail call ptr @zmq_msg_gets(ptr noundef %0, ptr noundef nonnull @.str.2)
  %9 = icmp eq ptr %8, null
  br i1 %9, label %20, label %10

10:                                               ; preds = %7
  %11 = tail call i64 @strtol(ptr noundef nonnull captures(none) %8, ptr noundef null, i32 noundef 10) #22
  %12 = trunc i64 %11 to i32
  br label %20

13:                                               ; preds = %2
  %14 = tail call noundef zeroext i1 @_ZNK3zmq5msg_t7is_cmsgEv(ptr noundef nonnull align 8 dereferenceable(64) %0)
  br i1 %14, label %20, label %15

15:                                               ; preds = %13
  %16 = tail call noundef zeroext i8 @_ZNK3zmq5msg_t5flagsEv(ptr noundef nonnull align 8 dereferenceable(64) %0)
  %.lobit = lshr i8 %16, 7
  %17 = zext nneg i8 %.lobit to i32
  br label %20

18:                                               ; preds = %2
  %19 = tail call ptr @__errno_location() #20
  store i32 22, ptr %19, align 4, !tbaa !3
  br label %20

20:                                               ; preds = %13, %15, %7, %18, %10, %3
  %.0 = phi i32 [ -1, %18 ], [ %12, %10 ], [ %6, %3 ], [ -1, %7 ], [ 1, %13 ], [ %17, %15 ]
  ret i32 %.0
}